; Function Attrs: mustprogress nofree norecurse nosync nounwind willreturn memory(read, inaccessiblemem: none) uwtable
define dso_local { <2 x float>, <2 x float> } @_ZN23btReducedDeformableBody14getRelativePosEi(ptr noundef nonnull readonly align 8 captures(none) dereferenceable(3176) %0, i32 noundef %1) local_unnamed_addr #16 align 2 {
  %3 = getelementptr inbounds nuw i8, ptr %0, i64 72
  %.sroa.0.0.copyload = load float, ptr %3, align 8
  %.sroa.4.0..sroa_idx = getelementptr inbounds nuw i8, ptr %0, i64 76
  %.sroa.4.0.copyload = load float, ptr %.sroa.4.0..sroa_idx, align 4
  %.sroa.5.0..sroa_idx = getelementptr inbounds nuw i8, ptr %0, i64 80
  %.sroa.5.0.copyload = load float, ptr %.sroa.5.0..sroa_idx, align 8
  %4 = getelementptr inbounds nuw i8, ptr %0, i64 88
  %.sroa.61.16.copyload = load float, ptr %4, align 8
  %.sroa.8.16..sroa_idx = getelementptr inbounds nuw i8, ptr %0, i64 92
  %.sroa.8.16.copyload = load float, ptr %.sroa.8.16..sroa_idx, align 4
  %.sroa.9.16..sroa_idx = getelementptr inbounds nuw i8, ptr %0, i64 96
  %.sroa.9.16.copyload = load float, ptr %.sroa.9.16..sroa_idx, align 8
  %5 = getelementptr inbounds nuw i8, ptr %0, i64 104
  %.sroa.102.32.copyload = load float, ptr %5, align 8
  %.sroa.12.32..sroa_idx = getelementptr inbounds nuw i8, ptr %0, i64 108
  %.sroa.12.32.copyload = load float, ptr %.sroa.12.32..sroa_idx, align 4
  %.sroa.13.32..sroa_idx = getelementptr inbounds nuw i8, ptr %0, i64 112
  %.sroa.13.32.copyload = load float, ptr %.sroa.13.32..sroa_idx, align 8
  %6 = getelementptr inbounds nuw i8, ptr %0, i64 2224
  %7 = load ptr, ptr %6, align 8, !tbaa !124
  %8 = sext i32 %1 to i64
  %9 = getelementptr inbounds %class.btVector3, ptr %7, i64 %8
  %10 = load float, ptr %9, align 4, !tbaa !138
  %11 = getelementptr inbounds nuw i8, ptr %9, i64 4
  %12 = load float, ptr %11, align 4, !tbaa !138
  %13 = fmul float %.sroa.4.0.copyload, %12
  %14 = tail call float @llvm.fmuladd.f32(float %.sroa.0.0.copyload, float %10, float %13)
  %15 = getelementptr inbounds nuw i8, ptr %9, i64 8
  %16 = load float, ptr %15, align 4, !tbaa !138
  %17 = tail call noundef float @llvm.fmuladd.f32(float %.sroa.5.0.copyload, float %16, float %14)
  %18 = fmul float %.sroa.8.16.copyload, %12
  %19 = tail call float @llvm.fmuladd.f32(float %.sroa.61.16.copyload, float %10, float %18)
  %20 = tail call noundef float @llvm.fmuladd.f32(float %.sroa.9.16.copyload, float %16, float %19)
  %21 = fmul float %.sroa.12.32.copyload, %12
  %22 = tail call float @llvm.fmuladd.f32(float %.sroa.102.32.copyload, float %10, float %21)
  %23 = tail call noundef float @llvm.fmuladd.f32(float %.sroa.13.32.copyload, float %16, float %22)
  %.sroa.0.0.vec.insert.i = insertelement <2 x float> poison, float %17, i64 0
  %.sroa.0.4.vec.insert.i = insertelement <2 x float> %.sroa.0.0.vec.insert.i, float %20, i64 1
  %.sroa.3.12.vec.insert.i = insertelement <2 x float> <float poison, float 0.000000e+00>, float %23, i64 0
  %.fca.0.insert.i = insertvalue { <2 x float>, <2 x float> } poison, <2 x float> %.sroa.0.4.vec.insert.i, 0
  %.fca.1.insert.i = insertvalue { <2 x float>, <2 x float> } %.fca.0.insert.i, <2 x float> %.sroa.3.12.vec.insert.i, 1
  ret { <2 x float>, <2 x float> } %.fca.1.insert.i
}